; ModuleID = '50/2593.cpp'
source_filename = "50/2593.cpp"
target datalayout = "e-m:e-p270:32:32-p271:32:32-p272:64:64-i64:64-f80:128-n8:16:32:64-S128"
target triple = "x86_64-pc-linux-gnu"

%"class.std::ios_base::Init" = type { i8 }
%"class.std::basic_istream" = type { i32 (...)**, i64, %"class.std::basic_ios" }
%"class.std::basic_ios" = type { %"class.std::ios_base", %"class.std::basic_ostream"*, i8, i8, %"class.std::basic_streambuf"*, %"class.std::ctype"*, %"class.std::num_put"*, %"class.std::num_get"* }
%"class.std::ios_base" = type { i32 (...)**, i64, i64, i32, i32, i32, %"struct.std::ios_base::_Callback_list"*, %"struct.std::ios_base::_Words", [8 x %"struct.std::ios_base::_Words"], i32, %"struct.std::ios_base::_Words"*, %"class.std::locale" }
%"struct.std::ios_base::_Callback_list" = type { %"struct.std::ios_base::_Callback_list"*, void (i32, %"class.std::ios_base"*, i32)*, i32, i32 }
%"struct.std::ios_base::_Words" = type { i8*, i64 }
%"class.std::locale" = type { %"class.std::locale::_Impl"* }
%"class.std::locale::_Impl" = type { i32, %"class.std::locale::facet"**, i64, %"class.std::locale::facet"**, i8** }
%"class.std::locale::facet" = type <{ i32 (...)**, i32, [4 x i8] }>
%"class.std::basic_ostream" = type { i32 (...)**, %"class.std::basic_ios" }
%"class.std::basic_streambuf" = type { i32 (...)**, i8*, i8*, i8*, i8*, i8*, i8*, %"class.std::locale" }
%"class.std::ctype" = type <{ %"class.std::locale::facet.base", [4 x i8], %struct.__locale_struct*, i8, [7 x i8], i32*, i32*, i16*, i8, [256 x i8], [256 x i8], i8, [6 x i8] }>
%"class.std::locale::facet.base" = type <{ i32 (...)**, i32 }>
%struct.__locale_struct = type { [13 x %struct.__locale_data*], i16*, i32*, i32*, [13 x i8*] }
%struct.__locale_data = type opaque
%"class.std::num_put" = type { %"class.std::locale::facet.base", [4 x i8] }
%"class.std::num_get" = type { %"class.std::locale::facet.base", [4 x i8] }

@_ZStL8__ioinit = internal global %"class.std::ios_base::Init" zeroinitializer, align 1
@__dso_handle = external hidden global i8
@_ZSt3cin = external dso_local global %"class.std::basic_istream", align 8
@_ZSt4cout = external dso_local global %"class.std::basic_ostream", align 8
@llvm.global_ctors = appending global [1 x { i32, void ()*, i8* }] [{ i32, void ()*, i8* } { i32 65535, void ()* @_GLOBAL__sub_I_2593.cpp, i8* null }]

; Function Attrs: noinline uwtable
define internal void @__cxx_global_var_init() #0 section ".text.startup" {
  call void @_ZNSt8ios_base4InitC1Ev(%"class.std::ios_base::Init"* @_ZStL8__ioinit)
  %1 = call i32 @__cxa_atexit(void (i8*)* bitcast (void (%"class.std::ios_base::Init"*)* @_ZNSt8ios_base4InitD1Ev to void (i8*)*), i8* getelementptr inbounds (%"class.std::ios_base::Init", %"class.std::ios_base::Init"* @_ZStL8__ioinit, i32 0, i32 0), i8* @__dso_handle) #3
  ret void
}

declare dso_local void @_ZNSt8ios_base4InitC1Ev(%"class.std::ios_base::Init"*) unnamed_addr #1

; Function Attrs: nounwind
declare dso_local void @_ZNSt8ios_base4InitD1Ev(%"class.std::ios_base::Init"*) unnamed_addr #2

; Function Attrs: nounwind
declare dso_local i32 @__cxa_atexit(void (i8*)*, i8*, i8*) #3

; Function Attrs: noinline norecurse uwtable
define dso_local i32 @main() #4 {
  %1 = alloca i32, align 4
  %2 = alloca i32, align 4
  %3 = alloca i32, align 4
  %4 = alloca i32, align 4
  store i32 0, i32* %1, align 4
  %5 = call dereferenceable(280) %"class.std::basic_istream"* @_ZNSirsERi(%"class.std::basic_istream"* @_ZSt3cin, i32* dereferenceable(4) %2)
  store i32 1, i32* %3, align 4
  br label %6

6:                                                ; preds = %74, %0
  %7 = load i32, i32* %3, align 4
  %8 = icmp sle i32 %7, 12
  br i1 %8, label %9, label %77

9:                                                ; preds = %6
  %10 = load i32, i32* %3, align 4
  switch i32 %10, label %66 [
    i32 1, label %11
    i32 2, label %14
    i32 3, label %18
    i32 4, label %22
    i32 5, label %26
    i32 6, label %31
    i32 7, label %36
    i32 8, label %41
    i32 9, label %46
    i32 10, label %51
    i32 11, label %56
    i32 12, label %61
  ]

11:                                               ; preds = %9
  %12 = load i32, i32* %2, align 4
  %13 = srem i32 %12, 7
  store i32 %13, i32* %4, align 4
  br label %66

14:                                               ; preds = %9
  %15 = load i32, i32* %2, align 4
  %16 = add nsw i32 %15, 31
  %17 = srem i32 %16, 7
  store i32 %17, i32* %4, align 4
  br label %66

18:                                               ; preds = %9
  %19 = load i32, i32* %2, align 4
  %20 = add nsw i32 %19, 31
  %21 = srem i32 %20, 7
  store i32 %21, i32* %4, align 4
  br label %66

22:                                               ; preds = %9
  %23 = load i32, i32* %2, align 4
  %24 = add nsw i32 %23, 62
  %25 = srem i32 %24, 7
  store i32 %25, i32* %4, align 4
  br label %66

26:                                               ; preds = %9
  %27 = load i32, i32* %2, align 4
  %28 = add nsw i32 %27, 62
  %29 = add nsw i32 %28, 30
  %30 = srem i32 %29, 7
  store i32 %30, i32* %4, align 4
  br label %66

31:                                               ; preds = %9
  %32 = load i32, i32* %2, align 4
  %33 = add nsw i32 %32, 93
  %34 = add nsw i32 %33, 30
  %35 = srem i32 %34, 7
  store i32 %35, i32* %4, align 4
  br label %66

36:                                               ; preds = %9
  %37 = load i32, i32* %2, align 4
  %38 = add nsw i32 %37, 93
  %39 = add nsw i32 %38, 60
  %40 = srem i32 %39, 7
  store i32 %40, i32* %4, align 4
  br label %66

41:                                               ; preds = %9
  %42 = load i32, i32* %2, align 4
  %43 = add nsw i32 %42, 124
  %44 = add nsw i32 %43, 60
  %45 = srem i32 %44, 7
  store i32 %45, i32* %4, align 4
  br label %66

46:                                               ; preds = %9
  %47 = load i32, i32* %2, align 4
  %48 = add nsw i32 %47, 155
  %49 = add nsw i32 %48, 60
  %50 = srem i32 %49, 7
  store i32 %50, i32* %4, align 4
  br label %66

51:                                               ; preds = %9
  %52 = load i32, i32* %2, align 4
  %53 = add nsw i32 %52, 155
  %54 = add nsw i32 %53, 90
  %55 = srem i32 %54, 7
  store i32 %55, i32* %4, align 4
  br label %66

56:                                               ; preds = %9
  %57 = load i32, i32* %2, align 4
  %58 = add nsw i32 %57, 186
  %59 = add nsw i32 %58, 90
  %60 = srem i32 %59, 7
  store i32 %60, i32* %4, align 4
  br label %66

61:                                               ; preds = %9
  %62 = load i32, i32* %2, align 4
  %63 = add nsw i32 %62, 186
  %64 = add nsw i32 %63, 120
  %65 = srem i32 %64, 7
  store i32 %65, i32* %4, align 4
  br label %66

66:                                               ; preds = %9, %61, %56, %51, %46, %41, %36, %31, %26, %22, %18, %14, %11
  %67 = load i32, i32* %4, align 4
  %68 = icmp eq i32 %67, 0
  br i1 %68, label %69, label %73

69:                                               ; preds = %66
  %70 = load i32, i32* %3, align 4
  %71 = call dereferenceable(272) %"class.std::basic_ostream"* @_ZNSolsEi(%"class.std::basic_ostream"* @_ZSt4cout, i32 %70)
  %72 = call dereferenceable(272) %"class.std::basic_ostream"* @_ZNSolsEPFRSoS_E(%"class.std::basic_ostream"* %71, %"class.std::basic_ostream"* (%"class.std::basic_ostream"*)* @_ZSt4endlIcSt11char_traitsIcEERSt13basic_ostreamIT_T0_ES6_)
  br label %73

73:                                               ; preds = %69, %66
  br label %74

74:                                               ; preds = %73
  %75 = load i32, i32* %3, align 4
  %76 = add nsw i32 %75, 1
  store i32 %76, i32* %3, align 4
  br label %6

77:                                               ; preds = %6
  ret i32 0
}

declare dso_local dereferenceable(280) %"class.std::basic_istream"* @_ZNSirsERi(%"class.std::basic_istream"*, i32* dereferenceable(4)) #1

declare dso_local dereferenceable(272) %"class.std::basic_ostream"* @_ZNSolsEi(%"class.std::basic_ostream"*, i32) #1

declare dso_local dereferenceable(272) %"class.std::basic_ostream"* @_ZNSolsEPFRSoS_E(%"class.std::basic_ostream"*, %"class.std::basic_ostream"* (%"class.std::basic_ostream"*)*) #1

declare dso_local dereferenceable(272) %"class.std::basic_ostream"* @_ZSt4endlIcSt11char_traitsIcEERSt13basic_ostreamIT_T0_ES6_(%"class.std::basic_ostream"* dereferenceable(272)) #1

; Function Attrs: noinline uwtable
define internal void @_GLOBAL__sub_I_2593.cpp() #0 section ".text.startup" {
  call void @__cxx_global_var_init()
  ret void
}


!llvm.module.flags = !{!0}
!llvm.ident = !{!1}

!0 = !{i32 1, !"wchar_size", i32 4}
!1 = !{!"clang version 10.0.0-4ubuntu1 "}
